target datalayout = "e-m:e-p270:32:32-p271:32:32-p272:64:64-i64:64-i128:128-f80:128-n8:16:32:64-S128"
target triple = "x86_64-pc-linux-gnu"

%struct.GVJ_s = type { ptr, ptr, ptr, ptr, ptr, ptr, i32, ptr, ptr, ptr, ptr, i64, i64, ptr, i32, %struct.gvplugin_active_render_s, %struct.gvplugin_active_device_s, %struct.gvplugin_active_loadimage_t, ptr, %struct.pointf_s, i8, ptr, i32, ptr, i8, ptr, i32, i32, i32, %struct.point, %struct.point, %struct.point, %struct.point, %struct.point, i32, %struct.boxf, %struct.pointf_s, %struct.boxf, %struct.boxf, %struct.pointf_s, %struct.pointf_s, double, i32, %struct.pointf_s, %struct.boxf, %struct.pointf_s, %struct.pointf_s, i32, i32, %struct.box, %struct.box, %struct.pointf_s, %struct.pointf_s, %struct.pointf_s, i8, i8, i8, i8, i8, i8, %struct.pointf_s, %struct.pointf_s, ptr, ptr, ptr, ptr, ptr, ptr, i64, ptr }
%struct.gvplugin_active_render_s = type { ptr, i32, ptr, ptr }
%struct.gvplugin_active_device_s = type { ptr, i32, ptr, ptr }
%struct.gvplugin_active_loadimage_t = type { ptr, i32, ptr }
%struct.point = type { i32, i32 }
%struct.boxf = type { %struct.pointf_s, %struct.pointf_s }
%struct.box = type { %struct.point, %struct.point }
%struct.pointf_s = type { double, double }
%struct.GVC_s = type { %struct.GVCOMMON_s, ptr, i8, ptr, i32, ptr, ptr, [5 x ptr], [5 x ptr], ptr, ptr, %struct.dtdisc_s_, ptr, %struct.gvplugin_active_textlayout_s, ptr, ptr, ptr, %struct.gvplugin_active_layout_s, ptr, ptr, ptr, %struct.pointf_s, %struct.pointf_s, %struct.pointf_s, %struct.point, %struct.boxf, i32, i8, i8, i8, ptr, ptr, ptr, ptr, i32, ptr, ptr, double, ptr, %struct.color_s, i32 }
%struct.GVCOMMON_s = type { ptr, ptr, i32, i8, i8, ptr, ptr, ptr, i32, ptr, i32 }
%struct.dtdisc_s_ = type { i32, i32, i32, ptr, ptr, ptr }
%struct.gvplugin_active_textlayout_s = type { ptr, i32, ptr }
%struct.gvplugin_active_layout_s = type { ptr, i32, ptr, ptr }
%struct.color_s = type { %union.anon, i32 }
%union.anon = type { [4 x double] }

@.str.4 = private unnamed_addr constant [27 x i8] c"memory allocation failure\0A\00", align 1

; Function Attrs: nounwind uwtable
define internal i64 @gvwrite_no_z(ptr noundef %0, ptr noundef %1, i64 noundef %2) #0 {
  %4 = alloca i64, align 8
  %5 = alloca ptr, align 8
  %6 = alloca ptr, align 8
  %7 = alloca i64, align 8
  store ptr %0, ptr %5, align 8, !tbaa !3
  store ptr %1, ptr %6, align 8, !tbaa !77
  store i64 %2, ptr %7, align 8, !tbaa !71
  %8 = load ptr, ptr %5, align 8, !tbaa !3
  %9 = getelementptr inbounds nuw %struct.GVJ_s, ptr %8, i32 0, i32 0
  %10 = load ptr, ptr %9, align 8, !tbaa !32
  %11 = getelementptr inbounds nuw %struct.GVC_s, ptr %10, i32 0, i32 10
  %12 = load ptr, ptr %11, align 8, !tbaa !78
  %13 = icmp ne ptr %12, null
  br i1 %13, label %14, label %24

14:                                               ; preds = %3
  %15 = load ptr, ptr %5, align 8, !tbaa !3
  %16 = getelementptr inbounds nuw %struct.GVJ_s, ptr %15, i32 0, i32 0
  %17 = load ptr, ptr %16, align 8, !tbaa !32
  %18 = getelementptr inbounds nuw %struct.GVC_s, ptr %17, i32 0, i32 10
  %19 = load ptr, ptr %18, align 8, !tbaa !78
  %20 = load ptr, ptr %5, align 8, !tbaa !3
  %21 = load ptr, ptr %6, align 8, !tbaa !77
  %22 = load i64, ptr %7, align 8, !tbaa !71
  %23 = call i64 %19(ptr noundef %20, ptr noundef %21, i64 noundef %22)
  store i64 %23, ptr %4, align 8
  br label %99

24:                                               ; preds = %3
  %25 = load ptr, ptr %5, align 8, !tbaa !3
  %26 = getelementptr inbounds nuw %struct.GVJ_s, ptr %25, i32 0, i32 10
  %27 = load ptr, ptr %26, align 8, !tbaa !36
  %28 = icmp ne ptr %27, null
  br i1 %28, label %29, label %92

29:                                               ; preds = %24
  %30 = load i64, ptr %7, align 8, !tbaa !71
  %31 = load ptr, ptr %5, align 8, !tbaa !3
  %32 = getelementptr inbounds nuw %struct.GVJ_s, ptr %31, i32 0, i32 11
  %33 = load i64, ptr %32, align 8, !tbaa !79
  %34 = load ptr, ptr %5, align 8, !tbaa !3
  %35 = getelementptr inbounds nuw %struct.GVJ_s, ptr %34, i32 0, i32 12
  %36 = load i64, ptr %35, align 8, !tbaa !80
  %37 = add i64 %36, 1
  %38 = sub i64 %33, %37
  %39 = icmp ugt i64 %30, %38
  br i1 %39, label %40, label %69

40:                                               ; preds = %29
  %41 = load ptr, ptr %5, align 8, !tbaa !3
  %42 = getelementptr inbounds nuw %struct.GVJ_s, ptr %41, i32 0, i32 12
  %43 = load i64, ptr %42, align 8, !tbaa !80
  %44 = load i64, ptr %7, align 8, !tbaa !71
  %45 = add i64 %43, %44
  %46 = add i64 %45, 1
  %47 = load ptr, ptr %5, align 8, !tbaa !3
  %48 = getelementptr inbounds nuw %struct.GVJ_s, ptr %47, i32 0, i32 11
  store i64 %46, ptr %48, align 8, !tbaa !79
  %49 = load ptr, ptr %5, align 8, !tbaa !3
  %50 = getelementptr inbounds nuw %struct.GVJ_s, ptr %49, i32 0, i32 10
  %51 = load ptr, ptr %50, align 8, !tbaa !36
  %52 = load ptr, ptr %5, align 8, !tbaa !3
  %53 = getelementptr inbounds nuw %struct.GVJ_s, ptr %52, i32 0, i32 11
  %54 = load i64, ptr %53, align 8, !tbaa !79
  %55 = call ptr @realloc(ptr noundef %51, i64 noundef %54) #17
  %56 = load ptr, ptr %5, align 8, !tbaa !3
  %57 = getelementptr inbounds nuw %struct.GVJ_s, ptr %56, i32 0, i32 10
  store ptr %55, ptr %57, align 8, !tbaa !36
  %58 = load ptr, ptr %5, align 8, !tbaa !3
  %59 = getelementptr inbounds nuw %struct.GVJ_s, ptr %58, i32 0, i32 10
  %60 = load ptr, ptr %59, align 8, !tbaa !36
  %61 = icmp ne ptr %60, null
  br i1 %61, label %68, label %62

62:                                               ; preds = %40
  %63 = load ptr, ptr %5, align 8, !tbaa !3
  %64 = getelementptr inbounds nuw %struct.GVJ_s, ptr %63, i32 0, i32 3
  %65 = load ptr, ptr %64, align 8, !tbaa !56
  %66 = getelementptr inbounds nuw %struct.GVCOMMON_s, ptr %65, i32 0, i32 5
  %67 = load ptr, ptr %66, align 8, !tbaa !57
  call void (ptr, ...) %67(ptr noundef @.str.4)
  call void @graphviz_exit(i32 noundef 1) #18
  unreachable

68:                                               ; preds = %40
  br label %69

69:                                               ; preds = %68, %29
  %70 = load ptr, ptr %5, align 8, !tbaa !3
  %71 = getelementptr inbounds nuw %struct.GVJ_s, ptr %70, i32 0, i32 10
  %72 = load ptr, ptr %71, align 8, !tbaa !36
  %73 = load ptr, ptr %5, align 8, !tbaa !3
  %74 = getelementptr inbounds nuw %struct.GVJ_s, ptr %73, i32 0, i32 12
  %75 = load i64, ptr %74, align 8, !tbaa !80
  %76 = getelementptr inbounds nuw i8, ptr %72, i64 %75
  %77 = load ptr, ptr %6, align 8, !tbaa !77
  %78 = load i64, ptr %7, align 8, !tbaa !71
  call void @llvm.memcpy.p0.p0.i64(ptr align 1 %76, ptr align 1 %77, i64 %78, i1 false)
  %79 = load i64, ptr %7, align 8, !tbaa !71
  %80 = load ptr, ptr %5, align 8, !tbaa !3
  %81 = getelementptr inbounds nuw %struct.GVJ_s, ptr %80, i32 0, i32 12
  %82 = load i64, ptr %81, align 8, !tbaa !80
  %83 = add i64 %82, %79
  store i64 %83, ptr %81, align 8, !tbaa !80
  %84 = load ptr, ptr %5, align 8, !tbaa !3
  %85 = getelementptr inbounds nuw %struct.GVJ_s, ptr %84, i32 0, i32 10
  %86 = load ptr, ptr %85, align 8, !tbaa !36
  %87 = load ptr, ptr %5, align 8, !tbaa !3
  %88 = getelementptr inbounds nuw %struct.GVJ_s, ptr %87, i32 0, i32 12
  %89 = load i64, ptr %88, align 8, !tbaa !80
  %90 = getelementptr inbounds nuw i8, ptr %86, i64 %89
  store i8 0, ptr %90, align 1, !tbaa !76
  %91 = load i64, ptr %7, align 8, !tbaa !71
  store i64 %91, ptr %4, align 8
  br label %99

92:                                               ; preds = %24
  %93 = load ptr, ptr %6, align 8, !tbaa !77
  %94 = load i64, ptr %7, align 8, !tbaa !71
  %95 = load ptr, ptr %5, align 8, !tbaa !3
  %96 = getelementptr inbounds nuw %struct.GVJ_s, ptr %95, i32 0, i32 9
  %97 = load ptr, ptr %96, align 8, !tbaa !37
  %98 = call i64 @fwrite(ptr noundef %93, i64 noundef 1, i64 noundef %94, ptr noundef %97)
  store i64 %98, ptr %4, align 8
  br label %99

99:                                               ; preds = %92, %69, %14
  %100 = load i64, ptr %4, align 8
  ret i64 %100
}