; Function Attrs: nounwind uwtable
define internal fastcc i64 @gvwrite_no_z(ptr noundef %0, ptr noundef %1, i64 noundef %2) unnamed_addr #0 {
  %4 = load ptr, ptr %0, align 8, !tbaa !30
  %5 = getelementptr inbounds nuw i8, ptr %4, i64 208
  %6 = load ptr, ptr %5, align 8, !tbaa !68
  %.not = icmp eq ptr %6, null
  br i1 %.not, label %9, label %7

7:                                                ; preds = %3
  %8 = tail call i64 %6(ptr noundef nonnull %0, ptr noundef %1, i64 noundef %2) #21
  br label %40

9:                                                ; preds = %3
  %10 = getelementptr inbounds nuw i8, ptr %0, i64 80
  %11 = load ptr, ptr %10, align 8, !tbaa !33
  %.not31 = icmp eq ptr %11, null
  br i1 %.not31, label %36, label %12

12:                                               ; preds = %9
  %13 = getelementptr inbounds nuw i8, ptr %0, i64 88
  %14 = load i64, ptr %13, align 8, !tbaa !69
  %15 = getelementptr inbounds nuw i8, ptr %0, i64 96
  %16 = load i64, ptr %15, align 8, !tbaa !70
  %.neg = xor i64 %16, -1
  %17 = add i64 %14, %.neg
  %18 = icmp ugt i64 %2, %17
  br i1 %18, label %19, label %28

19:                                               ; preds = %12
  %20 = add i64 %2, 1
  %21 = add i64 %20, %16
  store i64 %21, ptr %13, align 8, !tbaa !69
  %22 = tail call ptr @realloc(ptr noundef nonnull %11, i64 noundef %21) #24
  store ptr %22, ptr %10, align 8, !tbaa !33
  %.not32 = icmp eq ptr %22, null
  br i1 %.not32, label %23, label %._crit_edge

._crit_edge:                                      ; preds = %19
  %.pre = load i64, ptr %15, align 8, !tbaa !70
  br label %28

23:                                               ; preds = %19
  %24 = getelementptr inbounds nuw i8, ptr %0, i64 24
  %25 = load ptr, ptr %24, align 8, !tbaa !57
  %26 = getelementptr inbounds nuw i8, ptr %25, i64 24
  %27 = load ptr, ptr %26, align 8, !tbaa !58
  tail call void (ptr, ...) %27(ptr noundef nonnull @.str.4) #21
  tail call fastcc void @graphviz_exit() #25
  unreachable

28:                                               ; preds = %._crit_edge, %12
  %29 = phi i64 [ %.pre, %._crit_edge ], [ %16, %12 ]
  %30 = phi ptr [ %22, %._crit_edge ], [ %11, %12 ]
  %31 = getelementptr inbounds nuw i8, ptr %30, i64 %29
  tail call void @llvm.memcpy.p0.p0.i64(ptr nonnull align 1 %31, ptr align 1 %1, i64 %2, i1 false)
  %32 = load i64, ptr %15, align 8, !tbaa !70
  %33 = add i64 %32, %2
  store i64 %33, ptr %15, align 8, !tbaa !70
  %34 = load ptr, ptr %10, align 8, !tbaa !33
  %35 = getelementptr inbounds nuw i8, ptr %34, i64 %33
  store i8 0, ptr %35, align 1, !tbaa !54
  br label %40

36:                                               ; preds = %9
  %37 = getelementptr inbounds nuw i8, ptr %0, i64 72
  %38 = load ptr, ptr %37, align 8, !tbaa !34
  %39 = tail call i64 @fwrite(ptr noundef %1, i64 noundef 1, i64 noundef %2, ptr noundef %38)
  br label %40

40:                                               ; preds = %36, %28, %7
  %.0 = phi i64 [ %8, %7 ], [ %2, %28 ], [ %39, %36 ]
  ret i64 %.0
}